; Function Attrs: nounwind sspstrong uwtable
define internal range(i64 1, 0) i64 @proc_hash(i64 noundef %0) #0 {
  %2 = tail call i64 @rb_hash_start(i64 noundef 0) #21
  %3 = tail call i64 @rb_hash_proc(i64 noundef %2, i64 noundef %0)
  %4 = tail call i64 @rb_st_hash_end(i64 noundef %3) #24
  %5 = and i64 %4, 4611686018427387903
  %6 = icmp slt i64 %4, 0
  %masksel.i = select i1 %6, i64 -4611686018427387904, i64 0
  %.0.i = or disjoint i64 %masksel.i, %5
  %7 = shl nsw i64 %.0.i, 1
  %8 = or disjoint i64 %7, 1
  ret i64 %8
}